SF:/home/liam/VSCodeProjects/erdos-graph/src/db/ingestion.rs
FN:45,_RNvNtNtCs3DfrKCvK6AP_11erdos_graph2db9ingestion14get_checkpoint
FN:71,_RNvNtNtCs3DfrKCvK6AP_11erdos_graph2db9ingestion14set_checkpoint
FNDA:4,_RNvNtNtCs3DfrKCvK6AP_11erdos_graph2db9ingestion14get_checkpoint
FNDA:4,_RNvNtNtCs3DfrKCvK6AP_11erdos_graph2db9ingestion14set_checkpoint
FNF:2
FNH:2
DA:45,4
DA:46,4
DA:47,4
DA:48,4
DA:49,4
DA:50,4
DA:51,1
DA:52,1
DA:54,1
DA:57,3
DA:58,3
DA:60,4
DA:71,4
DA:72,4
DA:73,4
DA:74,4
DA:75,4
DA:76,4
DA:77,4
DA:78,4
DA:79,4
DA:80,4
DA:81,4
DA:82,4
DA:83,4
DA:84,4
BRF:0
BRH:0
LF:26
LH:26
end_of_record
SF:/home/liam/VSCodeProjects/erdos-graph/src/db/schema.rs
FN:94,_RINvNtNtCs3DfrKCvK6AP_11erdos_graph2db6schema12create_typesuEB6_
FN:38,_RNvNtNtCs3DfrKCvK6AP_11erdos_graph2db6schema17person_properties
FN:59,_RNvNtNtCs3DfrKCvK6AP_11erdos_graph2db6schema22publication_properties
FN:77,_RNvNtNtCs3DfrKCvK6AP_11erdos_graph2db6schema26coauthored_with_properties
FNDA:1,_RINvNtNtCs3DfrKCvK6AP_11erdos_graph2db6schema12create_typesuEB6_
FNDA:1,_RNvNtNtCs3DfrKCvK6AP_11erdos_graph2db6schema17person_properties
FNDA:1,_RNvNtNtCs3DfrKCvK6AP_11erdos_graph2db6schema22publication_properties
FNDA:1,_RNvNtNtCs3DfrKCvK6AP_11erdos_graph2db6schema26coauthored_with_properties
FNF:4
FNH:4
DA:38,1
DA:39,1
DA:40,1
DA:41,1
DA:42,1
DA:43,1
DA:44,1
DA:45,1
DA:46,1
DA:59,1
DA:60,1
DA:61,1
DA:62,1
DA:63,1
DA:64,1
DA:65,1
DA:66,1
DA:77,1
DA:78,1
DA:79,1
DA:80,1
DA:81,1
DA:82,1
DA:94,1
DA:97,1
DA:98,1
BRF:0
BRH:0
LF:26
LH:26
end_of_record
SF:/home/liam/VSCodeProjects/erdos-graph/src/scrapers/arxiv.rs
FN:87,_RNCNvNtNtCs3DfrKCvK6AP_11erdos_graph8scrapers5arxiv13find_subslice0B7_
FN:348,_RNCNvNtNtCs3DfrKCvK6AP_11erdos_graph8scrapers5arxiv30scrape_range_with_config_async0B7_
FN:485,_RNCNvNtNtNtCs3DfrKCvK6AP_11erdos_graph8scrapers5arxiv12helper_testss_48test_extract_complete_entries_multiple_in_buffer0B9_
FN:431,_RNvNtNtNtCs3DfrKCvK6AP_11erdos_graph8scrapers5arxiv12helper_testss_24test_find_subslice_basic
FN:475,_RNvNtNtNtCs3DfrKCvK6AP_11erdos_graph8scrapers5arxiv12helper_testss_48test_extract_complete_entries_multiple_in_buffer
FN:441,_RNvNtNtNtCs3DfrKCvK6AP_11erdos_graph8scrapers5arxiv12helper_testss_48test_extract_complete_entries_single_and_chunked
FN:30,_RNvMNtNtCs3DfrKCvK6AP_11erdos_graph8scrapers5arxivNtB2_12ArxivScraper11with_config
FN:83,_RNvNtNtCs3DfrKCvK6AP_11erdos_graph8scrapers5arxiv13find_subslice
FN:53,_RNvNtNtCs3DfrKCvK6AP_11erdos_graph8scrapers5arxiv14normalize_text
FN:136,_RNvNtNtCs3DfrKCvK6AP_11erdos_graph8scrapers5arxiv15parse_entry_str
FN:104,_RNvNtNtCs3DfrKCvK6AP_11erdos_graph8scrapers5arxiv24extract_complete_entries
FN:279,_RNvNtNtCs3DfrKCvK6AP_11erdos_graph8scrapers5arxiv25parse_entries_from_chunks
FN:344,_RNvNtNtCs3DfrKCvK6AP_11erdos_graph8scrapers5arxiv30scrape_range_with_config_async
FN:67,_RNvNtNtCs3DfrKCvK6AP_11erdos_graph8scrapers5arxiv35extract_primary_category_from_attrs
FN:47,_RNvXs2_NtNtCs3DfrKCvK6AP_11erdos_graph8scrapers5arxivNtB5_12ArxivScraperNtNtB7_7scraper7Scraper12scrape_range
FN:23,_RNvMNtNtCs3DfrKCvK6AP_11erdos_graph8scrapers5arxivNtB2_12ArxivScraper3new
FN:415,_RNvNtNtCs3DfrKCvK6AP_11erdos_graph8scrapers5arxiv12scrape_range
FN:36,_RNvXs_NtNtCs3DfrKCvK6AP_11erdos_graph8scrapers5arxivNtB4_12ArxivScraperNtNtCsed4ga1QahSC_4core7default7Default7default
FNDA:8824,_RNCNvNtNtCs3DfrKCvK6AP_11erdos_graph8scrapers5arxiv13find_subslice0B7_
FNDA:12,_RNCNvNtNtCs3DfrKCvK6AP_11erdos_graph8scrapers5arxiv30scrape_range_with_config_async0B7_
FNDA:2,_RNCNvNtNtNtCs3DfrKCvK6AP_11erdos_graph8scrapers5arxiv12helper_testss_48test_extract_complete_entries_multiple_in_buffer0B9_
FNDA:1,_RNvNtNtNtCs3DfrKCvK6AP_11erdos_graph8scrapers5arxiv12helper_testss_24test_find_subslice_basic
FNDA:1,_RNvNtNtNtCs3DfrKCvK6AP_11erdos_graph8scrapers5arxiv12helper_testss_48test_extract_complete_entries_multiple_in_buffer
FNDA:1,_RNvNtNtNtCs3DfrKCvK6AP_11erdos_graph8scrapers5arxiv12helper_testss_48test_extract_complete_entries_single_and_chunked
FNDA:4,_RNvMNtNtCs3DfrKCvK6AP_11erdos_graph8scrapers5arxivNtB2_12ArxivScraper11with_config
FNDA:102,_RNvNtNtCs3DfrKCvK6AP_11erdos_graph8scrapers5arxiv13find_subslice
FNDA:158,_RNvNtNtCs3DfrKCvK6AP_11erdos_graph8scrapers5arxiv14normalize_text
FNDA:26,_RNvNtNtCs3DfrKCvK6AP_11erdos_graph8scrapers5arxiv15parse_entry_str
FNDA:42,_RNvNtNtCs3DfrKCvK6AP_11erdos_graph8scrapers5arxiv24extract_complete_entries
FNDA:15,_RNvNtNtCs3DfrKCvK6AP_11erdos_graph8scrapers5arxiv25parse_entries_from_chunks
FNDA:12,_RNvNtNtCs3DfrKCvK6AP_11erdos_graph8scrapers5arxiv30scrape_range_with_config_async
FNDA:0,_RNvNtNtCs3DfrKCvK6AP_11erdos_graph8scrapers5arxiv35extract_primary_category_from_attrs
FNDA:4,_RNvXs2_NtNtCs3DfrKCvK6AP_11erdos_graph8scrapers5arxivNtB5_12ArxivScraperNtNtB7_7scraper7Scraper12scrape_range
FNDA:0,_RNvMNtNtCs3DfrKCvK6AP_11erdos_graph8scrapers5arxivNtB2_12ArxivScraper3new
FNDA:0,_RNvNtNtCs3DfrKCvK6AP_11erdos_graph8scrapers5arxiv12scrape_range
FNDA:0,_RNvXs_NtNtCs3DfrKCvK6AP_11erdos_graph8scrapers5arxivNtB4_12ArxivScraperNtNtCsed4ga1QahSC_4core7default7Default7default
FNF:18
FNH:14
DA:23,0
DA:24,0
DA:25,0
DA:26,0
DA:27,0
DA:30,4
DA:31,4
DA:32,4
DA:36,0
DA:37,0
DA:38,0
DA:47,4
DA:49,4
DA:53,158
DA:54,158
DA:55,158
DA:56,1
DA:57,1
DA:58,157
DA:59,157
DA:60,157
DA:61,0
DA:62,0
DA:63,158
DA:67,0
DA:68,0
DA:69,0
DA:70,0
DA:71,0
DA:72,0
DA:74,0
DA:75,0
DA:83,102
DA:84,102
DA:85,6
DA:86,96
DA:87,8824
DA:88,102
DA:104,42
DA:105,42
DA:106,42
DA:107,42
DA:108,42
DA:109,42
DA:111,68
DA:112,68
DA:114,38
DA:115,30
DA:116,30
DA:117,30
DA:118,26
DA:119,26
DA:120,26
DA:122,26
DA:123,22
DA:124,22
DA:126,26
DA:127,26
DA:129,4
DA:132,42
DA:136,26
DA:137,26
DA:138,26
DA:139,26
DA:140,26
DA:141,26
DA:142,26
DA:143,26
DA:144,26
DA:145,26
DA:146,26
DA:147,26
DA:148,26
DA:149,26
DA:154,26
DA:155,26
DA:156,11
DA:158,9
DA:159,9
DA:160,9
DA:161,9
DA:162,17
DA:168,442
DA:169,442
DA:170,271
DA:171,271
DA:172,271
DA:175,271
DA:177,220
DA:178,26
DA:179,26
DA:180,26
DA:181,26
DA:184,25
DA:185,25
DA:186,24
DA:187,24
DA:190,194
DA:191,25
DA:192,25
DA:193,25
DA:197,169
DA:198,4
DA:199,4
DA:200,4
DA:203,165
DA:204,79
DA:205,79
DA:206,79
DA:210,86
DA:211,0
DA:212,0
DA:213,0
DA:220,86
DA:221,86
DA:222,0
DA:223,0
DA:224,0
DA:225,86
DA:229,110
DA:233,110
DA:235,25
DA:236,24
DA:237,23
DA:239,23
DA:240,1
DA:241,22
DA:243,22
DA:245,22
DA:246,22
DA:247,22
DA:248,22
DA:249,22
DA:250,22
DA:251,22
DA:252,22
DA:253,22
DA:254,22
DA:255,85
DA:257,0
DA:258,1
DA:259,60
DA:263,1
DA:264,26
DA:279,15
DA:280,15
DA:281,15
DA:282,15
DA:283,15
DA:286,15
DA:287,15
DA:289,32
DA:290,17
DA:291,17
DA:292,17
DA:293,17
DA:295,15
DA:296,15
DA:344,12
DA:345,12
DA:346,12
DA:347,12
DA:348,12
DA:349,12
DA:350,12
DA:351,12
DA:352,12
DA:353,12
DA:355,12
DA:356,1
DA:357,11
DA:359,11
DA:363,13
DA:364,13
DA:366,13
DA:367,13
DA:371,13
DA:374,13
DA:377,13
DA:378,13
DA:381,22
DA:382,9
DA:383,13
DA:387,9
DA:391,13
DA:394,13
DA:397,13
DA:398,13
DA:399,13
DA:400,11
DA:401,2
DA:403,2
DA:406,11
DA:407,12
DA:415,0
DA:416,0
DA:417,0
DA:418,0
DA:420,0
DA:421,0
DA:422,0
DA:431,1
DA:432,1
DA:433,1
DA:434,1
DA:435,1
DA:436,1
DA:441,1
DA:442,1
DA:443,1
DA:446,1
DA:447,1
DA:448,1
DA:450,1
DA:451,1
DA:454,1
DA:455,1
DA:456,1
DA:457,1
DA:458,0
DA:462,1
DA:463,1
DA:464,1
DA:465,1
DA:466,1
DA:467,1
DA:469,1
DA:470,1
DA:475,1
DA:476,1
DA:477,1
DA:479,1
DA:481,1
DA:482,1
DA:483,1
DA:484,1
DA:485,2
DA:486,1
DA:487,1
DA:488,1
BRF:0
BRH:0
LF:243
LH:210
end_of_record
SF:/home/liam/VSCodeProjects/erdos-graph/src/scrapers/dblp.rs
FN:69,_RNvMNtNtCs3DfrKCvK6AP_11erdos_graph8scrapers4dblpNtB2_11DblpScraper11with_config
FN:340,_RNvNtNtCs3DfrKCvK6AP_11erdos_graph8scrapers4dblp16fetch_url_cached
FN:385,_RNvNtNtCs3DfrKCvK6AP_11erdos_graph8scrapers4dblp21convert_hit_to_record
FN:234,_RNvNtNtCs3DfrKCvK6AP_11erdos_graph8scrapers4dblp24scrape_range_with_config
FN:187,_RNvXs0_NtNtCs3DfrKCvK6AP_11erdos_graph8scrapers4dblpNtB5_11AuthorFieldNtNtCsed4ga1QahSC_4core7default7Default7default
FN:89,_RNvXs3_NtNtCs3DfrKCvK6AP_11erdos_graph8scrapers4dblpNtB5_11DblpScraperNtNtB7_7scraper7Scraper12scrape_range
FN:210,_RNCNvNtNtCs3DfrKCvK6AP_11erdos_graph8scrapers4dblp12scrape_range0B7_
FN:344,_RNCNvNtNtCs3DfrKCvK6AP_11erdos_graph8scrapers4dblp16fetch_url_cached0B7_
FN:393,_RNCNvNtNtCs3DfrKCvK6AP_11erdos_graph8scrapers4dblp21convert_hit_to_record0B7_
FN:416,_RNCNvNtNtCs3DfrKCvK6AP_11erdos_graph8scrapers4dblp21convert_hit_to_records_0B7_
FN:238,_RNCNvNtNtCs3DfrKCvK6AP_11erdos_graph8scrapers4dblp24scrape_range_with_config0B7_
FN:58,_RNvMNtNtCs3DfrKCvK6AP_11erdos_graph8scrapers4dblpNtB2_11DblpScraper3new
FN:207,_RNvNtNtCs3DfrKCvK6AP_11erdos_graph8scrapers4dblp12scrape_range
FN:75,_RNvXs_NtNtCs3DfrKCvK6AP_11erdos_graph8scrapers4dblpNtB4_11DblpScraperNtNtCsed4ga1QahSC_4core7default7Default7default
FNDA:0,_RNvMNtNtCs3DfrKCvK6AP_11erdos_graph8scrapers4dblpNtB2_11DblpScraper11with_config
FNDA:6,_RNvNtNtCs3DfrKCvK6AP_11erdos_graph8scrapers4dblp16fetch_url_cached
FNDA:7,_RNvNtNtCs3DfrKCvK6AP_11erdos_graph8scrapers4dblp21convert_hit_to_record
FNDA:7,_RNvNtNtCs3DfrKCvK6AP_11erdos_graph8scrapers4dblp24scrape_range_with_config
FNDA:0,_RNvXs0_NtNtCs3DfrKCvK6AP_11erdos_graph8scrapers4dblpNtB5_11AuthorFieldNtNtCsed4ga1QahSC_4core7default7Default7default
FNDA:0,_RNvXs3_NtNtCs3DfrKCvK6AP_11erdos_graph8scrapers4dblpNtB5_11DblpScraperNtNtB7_7scraper7Scraper12scrape_range
FNDA:0,_RNCNvNtNtCs3DfrKCvK6AP_11erdos_graph8scrapers4dblp12scrape_range0B7_
FNDA:6,_RNCNvNtNtCs3DfrKCvK6AP_11erdos_graph8scrapers4dblp16fetch_url_cached0B7_
FNDA:0,_RNCNvNtNtCs3DfrKCvK6AP_11erdos_graph8scrapers4dblp21convert_hit_to_record0B7_
FNDA:1,_RNCNvNtNtCs3DfrKCvK6AP_11erdos_graph8scrapers4dblp21convert_hit_to_records_0B7_
FNDA:7,_RNCNvNtNtCs3DfrKCvK6AP_11erdos_graph8scrapers4dblp24scrape_range_with_config0B7_
FNDA:0,_RNvMNtNtCs3DfrKCvK6AP_11erdos_graph8scrapers4dblpNtB2_11DblpScraper3new
FNDA:0,_RNvNtNtCs3DfrKCvK6AP_11erdos_graph8scrapers4dblp12scrape_range
FNDA:0,_RNvXs_NtNtCs3DfrKCvK6AP_11erdos_graph8scrapers4dblpNtB4_11DblpScraperNtNtCsed4ga1QahSC_4core7default7Default7default
FNF:14
FNH:6
DA:58,0
DA:59,0
DA:60,0
DA:61,0
DA:62,0
DA:69,0
DA:70,0
DA:71,0
DA:75,0
DA:76,0
DA:77,0
DA:89,0
DA:91,0
DA:187,0
DA:188,0
DA:189,0
DA:207,0
DA:208,0
DA:209,0
DA:210,0
DA:211,0
DA:212,0
DA:234,7
DA:235,7
DA:236,7
DA:237,7
DA:238,7
DA:239,7
DA:240,1
DA:241,6
DA:243,6
DA:244,6
DA:245,6
DA:246,6
DA:247,6
DA:249,7
DA:253,7
DA:255,7
DA:257,7
DA:258,7
DA:259,7
DA:260,7
DA:261,7
DA:264,7
DA:265,2
DA:266,2
DA:267,2
DA:268,2
DA:269,2
DA:270,5
DA:271,0
DA:273,5
DA:274,5
DA:277,6
DA:278,6
DA:282,6
DA:285,6
DA:286,6
DA:287,0
DA:288,0
DA:289,0
DA:295,6
DA:296,6
DA:297,0
DA:298,0
DA:299,0
DA:303,6
DA:304,6
DA:305,6
DA:306,0
DA:307,6
DA:308,0
DA:312,13
DA:313,7
DA:314,5
DA:315,5
DA:319,6
DA:320,6
DA:321,5
DA:322,1
DA:325,1
DA:329,6
DA:330,7
DA:340,6
DA:341,6
DA:342,6
DA:343,6
DA:344,6
DA:345,6
DA:346,6
DA:347,6
DA:348,0
DA:349,6
DA:350,6
DA:351,0
DA:353,0
DA:354,0
DA:355,0
DA:356,0
DA:358,0
DA:359,0
DA:361,0
DA:363,0
DA:364,0
DA:365,0
DA:368,0
DA:370,0
DA:371,0
DA:372,0
DA:374,0
DA:377,0
DA:379,0
DA:380,6
DA:385,7
DA:386,7
DA:387,6
DA:388,0
DA:391,6
DA:392,6
DA:393,6
DA:396,6
DA:397,6
DA:398,5
DA:399,0
DA:400,5
DA:402,10
DA:403,5
DA:404,4
DA:405,1
DA:407,5
DA:409,1
DA:412,6
DA:413,1
DA:414,5
DA:416,5
DA:417,1
DA:418,0
DA:419,1
DA:421,5
DA:422,5
DA:423,5
DA:424,5
DA:425,5
DA:426,5
DA:427,5
DA:428,5
DA:429,7
BRF:0
BRH:0
LF:152
LH:97
end_of_record
SF:/home/liam/VSCodeProjects/erdos-graph/src/scrapers/scraping_orchestrator.rs
FN:91,_RINvMNtNtCs3DfrKCvK6AP_11erdos_graph8scrapers21scraping_orchestratorNtB3_18DeduplicationCache13populate_yearNtNtNtCs1gKSnsYX8Cb_7indradb3rdb9datastore16RocksdbDatastoreEB7_
FN:55,_RINvMNtNtCs3DfrKCvK6AP_11erdos_graph8scrapers21scraping_orchestratorNtB3_18DeduplicationCache22check_exists_and_cacheNtNtNtCs1gKSnsYX8Cb_7indradb3rdb9datastore16RocksdbDatastoreEB7_
FN:455,_RINvNtNtCs3DfrKCvK6AP_11erdos_graph8scrapers21scraping_orchestrator15add_publicationNtNtNtCs1gKSnsYX8Cb_7indradb3rdb9datastore16RocksdbDatastoreEB6_
FN:280,_RINvNtNtCs3DfrKCvK6AP_11erdos_graph8scrapers21scraping_orchestrator18ingest_publicationNtNtNtCs1gKSnsYX8Cb_7indradb3rdb9datastore16RocksdbDatastoreEB6_
FN:338,_RINvNtNtCs3DfrKCvK6AP_11erdos_graph8scrapers21scraping_orchestrator18publication_existsNtNtNtCs1gKSnsYX8Cb_7indradb3rdb9datastore16RocksdbDatastoreEB6_
FN:560,_RINvNtNtCs3DfrKCvK6AP_11erdos_graph8scrapers21scraping_orchestrator20create_authored_edgeNtNtNtCs1gKSnsYX8Cb_7indradb3rdb9datastore16RocksdbDatastoreEB6_
FN:590,_RINvNtNtCs3DfrKCvK6AP_11erdos_graph8scrapers21scraping_orchestrator20create_coauthor_edgeNtNtNtCs1gKSnsYX8Cb_7indradb3rdb9datastore16RocksdbDatastoreEB6_
FN:377,_RINvNtNtCs3DfrKCvK6AP_11erdos_graph8scrapers21scraping_orchestrator24check_authors_similarityNtNtNtCs1gKSnsYX8Cb_7indradb3rdb9datastore16RocksdbDatastoreEB6_
FN:494,_RINvNtNtCs3DfrKCvK6AP_11erdos_graph8scrapers21scraping_orchestrator27get_or_create_author_vertexNtNtNtCs1gKSnsYX8Cb_7indradb3rdb9datastore16RocksdbDatastoreEB6_
FN:112,_RNCINvMNtNtCs3DfrKCvK6AP_11erdos_graph8scrapers21scraping_orchestratorNtB5_18DeduplicationCache13populate_yearNtNtNtCs1gKSnsYX8Cb_7indradb3rdb9datastore16RocksdbDatastoreE0B9_
FN:285,_RNCINvNtNtCs3DfrKCvK6AP_11erdos_graph8scrapers21scraping_orchestrator18ingest_publicationNtNtNtCs1gKSnsYX8Cb_7indradb3rdb9datastore16RocksdbDatastoreE0B8_
FN:628,_RNCINvNtNtCs3DfrKCvK6AP_11erdos_graph8scrapers21scraping_orchestrator20create_coauthor_edgeNtNtNtCs1gKSnsYX8Cb_7indradb3rdb9datastore16RocksdbDatastoreE0B8_
FN:633,_RNCINvNtNtCs3DfrKCvK6AP_11erdos_graph8scrapers21scraping_orchestrator20create_coauthor_edgeNtNtNtCs1gKSnsYX8Cb_7indradb3rdb9datastore16RocksdbDatastoreEs0_0B8_
FN:632,_RNCINvNtNtCs3DfrKCvK6AP_11erdos_graph8scrapers21scraping_orchestrator20create_coauthor_edgeNtNtNtCs1gKSnsYX8Cb_7indradb3rdb9datastore16RocksdbDatastoreEs_0B8_
FN:413,_RNCINvNtNtCs3DfrKCvK6AP_11erdos_graph8scrapers21scraping_orchestrator24check_authors_similarityNtNtNtCs1gKSnsYX8Cb_7indradb3rdb9datastore16RocksdbDatastoreE0B8_
FN:428,_RNCINvNtNtCs3DfrKCvK6AP_11erdos_graph8scrapers21scraping_orchestrator24check_authors_similarityNtNtNtCs1gKSnsYX8Cb_7indradb3rdb9datastore16RocksdbDatastoreEs_0B8_
FN:634,_RNCNCINvNtNtCs3DfrKCvK6AP_11erdos_graph8scrapers21scraping_orchestrator20create_coauthor_edgeNtNtNtCs1gKSnsYX8Cb_7indradb3rdb9datastore16RocksdbDatastoreEs0_00Ba_
FN:637,_RNCNCNCINvNtNtCs3DfrKCvK6AP_11erdos_graph8scrapers21scraping_orchestrator20create_coauthor_edgeNtNtNtCs1gKSnsYX8Cb_7indradb3rdb9datastore16RocksdbDatastoreEs0_000Bc_
FN:47,_RNvMNtNtCs3DfrKCvK6AP_11erdos_graph8scrapers21scraping_orchestratorNtB2_18DeduplicationCache3add
FN:40,_RNvMNtNtCs3DfrKCvK6AP_11erdos_graph8scrapers21scraping_orchestratorNtB2_18DeduplicationCache3new
FN:147,_RNvMs_NtNtCs3DfrKCvK6AP_11erdos_graph8scrapers21scraping_orchestratorNtB4_16IngestionContext3new
FNDA:2,_RINvMNtNtCs3DfrKCvK6AP_11erdos_graph8scrapers21scraping_orchestratorNtB3_18DeduplicationCache13populate_yearNtNtNtCs1gKSnsYX8Cb_7indradb3rdb9datastore16RocksdbDatastoreEB7_
FNDA:3,_RINvMNtNtCs3DfrKCvK6AP_11erdos_graph8scrapers21scraping_orchestratorNtB3_18DeduplicationCache22check_exists_and_cacheNtNtNtCs1gKSnsYX8Cb_7indradb3rdb9datastore16RocksdbDatastoreEB7_
FNDA:3,_RINvNtNtCs3DfrKCvK6AP_11erdos_graph8scrapers21scraping_orchestrator15add_publicationNtNtNtCs1gKSnsYX8Cb_7indradb3rdb9datastore16RocksdbDatastoreEB6_
FNDA:0,_RINvNtNtCs3DfrKCvK6AP_11erdos_graph8scrapers21scraping_orchestrator18ingest_publicationNtNtNtCs1gKSnsYX8Cb_7indradb3rdb9datastore16RocksdbDatastoreEB6_
FNDA:4,_RINvNtNtCs3DfrKCvK6AP_11erdos_graph8scrapers21scraping_orchestrator18publication_existsNtNtNtCs1gKSnsYX8Cb_7indradb3rdb9datastore16RocksdbDatastoreEB6_
FNDA:2,_RINvNtNtCs3DfrKCvK6AP_11erdos_graph8scrapers21scraping_orchestrator20create_authored_edgeNtNtNtCs1gKSnsYX8Cb_7indradb3rdb9datastore16RocksdbDatastoreEB6_
FNDA:2,_RINvNtNtCs3DfrKCvK6AP_11erdos_graph8scrapers21scraping_orchestrator20create_coauthor_edgeNtNtNtCs1gKSnsYX8Cb_7indradb3rdb9datastore16RocksdbDatastoreEB6_
FNDA:1,_RINvNtNtCs3DfrKCvK6AP_11erdos_graph8scrapers21scraping_orchestrator24check_authors_similarityNtNtNtCs1gKSnsYX8Cb_7indradb3rdb9datastore16RocksdbDatastoreEB6_
FNDA:7,_RINvNtNtCs3DfrKCvK6AP_11erdos_graph8scrapers21scraping_orchestrator27get_or_create_author_vertexNtNtNtCs1gKSnsYX8Cb_7indradb3rdb9datastore16RocksdbDatastoreEB6_
FNDA:2,_RNCINvMNtNtCs3DfrKCvK6AP_11erdos_graph8scrapers21scraping_orchestratorNtB5_18DeduplicationCache13populate_yearNtNtNtCs1gKSnsYX8Cb_7indradb3rdb9datastore16RocksdbDatastoreE0B9_
FNDA:0,_RNCINvNtNtCs3DfrKCvK6AP_11erdos_graph8scrapers21scraping_orchestrator18ingest_publicationNtNtNtCs1gKSnsYX8Cb_7indradb3rdb9datastore16RocksdbDatastoreE0B8_
FNDA:0,_RNCINvNtNtCs3DfrKCvK6AP_11erdos_graph8scrapers21scraping_orchestrator20create_coauthor_edgeNtNtNtCs1gKSnsYX8Cb_7indradb3rdb9datastore16RocksdbDatastoreE0B8_
FNDA:0,_RNCINvNtNtCs3DfrKCvK6AP_11erdos_graph8scrapers21scraping_orchestrator20create_coauthor_edgeNtNtNtCs1gKSnsYX8Cb_7indradb3rdb9datastore16RocksdbDatastoreEs0_0B8_
FNDA:0,_RNCINvNtNtCs3DfrKCvK6AP_11erdos_graph8scrapers21scraping_orchestrator20create_coauthor_edgeNtNtNtCs1gKSnsYX8Cb_7indradb3rdb9datastore16RocksdbDatastoreEs_0B8_
FNDA:4,_RNCINvNtNtCs3DfrKCvK6AP_11erdos_graph8scrapers21scraping_orchestrator24check_authors_similarityNtNtNtCs1gKSnsYX8Cb_7indradb3rdb9datastore16RocksdbDatastoreE0B8_
FNDA:1,_RNCINvNtNtCs3DfrKCvK6AP_11erdos_graph8scrapers21scraping_orchestrator24check_authors_similarityNtNtNtCs1gKSnsYX8Cb_7indradb3rdb9datastore16RocksdbDatastoreEs_0B8_
FNDA:0,_RNCNCINvNtNtCs3DfrKCvK6AP_11erdos_graph8scrapers21scraping_orchestrator20create_coauthor_edgeNtNtNtCs1gKSnsYX8Cb_7indradb3rdb9datastore16RocksdbDatastoreEs0_00Ba_
FNDA:0,_RNCNCNCINvNtNtCs3DfrKCvK6AP_11erdos_graph8scrapers21scraping_orchestrator20create_coauthor_edgeNtNtNtCs1gKSnsYX8Cb_7indradb3rdb9datastore16RocksdbDatastoreEs0_000Bc_
FNDA:0,_RNvMNtNtCs3DfrKCvK6AP_11erdos_graph8scrapers21scraping_orchestratorNtB2_18DeduplicationCache3add
FNDA:5,_RNvMNtNtCs3DfrKCvK6AP_11erdos_graph8scrapers21scraping_orchestratorNtB2_18DeduplicationCache3new
FNDA:4,_RNvMs_NtNtCs3DfrKCvK6AP_11erdos_graph8scrapers21scraping_orchestratorNtB4_16IngestionContext3new
FNF:21
FNH:13
DA:40,5
DA:41,5
DA:42,5
DA:43,5
DA:44,5
DA:47,0
DA:48,0
DA:49,0
DA:50,0
DA:51,0
DA:52,0
DA:55,3
DA:56,3
DA:57,3
DA:58,3
DA:59,3
DA:60,3
DA:62,3
DA:63,2
DA:64,2
DA:66,3
DA:68,3
DA:69,3
DA:71,4
DA:72,2
DA:73,2
DA:75,2
DA:77,1
DA:78,1
DA:79,1
DA:80,1
DA:81,1
DA:83,1
DA:84,0
DA:85,1
DA:88,2
DA:89,3
DA:91,2
DA:92,2
DA:94,2
DA:95,2
DA:96,2
DA:98,2
DA:101,2
DA:102,2
DA:103,2
DA:105,2
DA:107,2
DA:108,2
DA:109,2
DA:110,2
DA:111,3
DA:112,2
DA:113,1
DA:114,1
DA:115,1
DA:116,1
DA:117,1
DA:118,1
DA:119,1
DA:121,2
DA:122,2
DA:123,2
DA:124,2
DA:125,2
DA:126,2
DA:127,2
DA:128,2
DA:129,0
DA:130,0
DA:131,0
DA:132,0
DA:133,0
DA:135,0
DA:136,2
DA:147,4
DA:148,4
DA:149,4
DA:150,4
DA:151,4
DA:152,4
DA:153,4
DA:280,0
DA:281,0
DA:282,0
DA:283,0
DA:284,0
DA:285,0
DA:287,0
DA:288,0
DA:289,0
DA:292,0
DA:295,0
DA:296,0
DA:297,0
DA:299,0
DA:302,0
DA:303,0
DA:304,0
DA:305,0
DA:306,0
DA:310,0
DA:311,0
DA:312,0
DA:313,0
DA:316,0
DA:318,0
DA:322,0
DA:323,0
DA:338,4
DA:339,4
DA:340,4
DA:341,4
DA:342,4
DA:343,4
DA:345,4
DA:346,4
DA:347,4
DA:348,4
DA:349,0
DA:352,4
DA:353,4
DA:354,4
DA:355,4
DA:356,4
DA:357,4
DA:359,1
DA:360,3
DA:361,0
DA:364,3
DA:365,4
DA:377,1
DA:378,1
DA:379,1
DA:380,1
DA:381,1
DA:382,1
DA:385,1
DA:386,1
DA:387,1
DA:388,0
DA:390,1
DA:391,1
DA:392,0
DA:395,1
DA:396,1
DA:397,0
DA:400,1
DA:401,1
DA:402,0
DA:405,1
DA:406,1
DA:407,1
DA:408,1
DA:409,0
DA:412,2
DA:413,4
DA:414,1
DA:415,1
DA:416,1
DA:417,1
DA:419,0
DA:421,1
DA:422,0
DA:423,1
DA:424,1
DA:425,0
DA:426,1
DA:428,1
DA:430,1
DA:431,1
DA:433,1
DA:434,0
DA:436,1
DA:439,1
DA:440,1
DA:455,3
DA:456,3
DA:457,3
DA:458,3
DA:461,3
DA:462,3
DA:464,3
DA:466,3
DA:467,3
DA:468,3
DA:469,3
DA:470,3
DA:473,15
DA:474,12
DA:475,12
DA:476,12
DA:477,12
DA:480,3
DA:481,3
DA:494,7
DA:495,7
DA:496,7
DA:497,7
DA:498,7
DA:501,7
DA:502,1
DA:503,6
DA:505,6
DA:508,6
DA:509,6
DA:511,6
DA:512,6
DA:513,6
DA:515,6
DA:517,6
DA:518,6
DA:520,0
DA:521,0
DA:522,6
DA:525,6
DA:526,6
DA:529,6
DA:530,6
DA:531,6
DA:532,6
DA:533,6
DA:534,6
DA:537,36
DA:538,30
DA:539,30
DA:540,30
DA:541,30
DA:544,6
DA:545,6
DA:546,7
DA:560,2
DA:561,2
DA:562,2
DA:563,2
DA:564,2
DA:567,2
DA:568,2
DA:570,2
DA:572,2
DA:573,2
DA:590,2
DA:591,2
DA:592,2
DA:593,2
DA:594,2
DA:595,2
DA:598,2
DA:599,2
DA:600,2
DA:601,2
DA:604,2
DA:605,1
DA:606,1
DA:607,1
DA:608,1
DA:609,1
DA:610,1
DA:613,1
DA:614,1
DA:616,1
DA:617,1
DA:621,0
DA:622,0
DA:623,0
DA:624,0
DA:626,0
DA:627,0
DA:628,0
DA:629,0
DA:630,0
DA:631,0
DA:632,0
DA:633,0
DA:634,0
DA:635,0
DA:636,0
DA:637,0
DA:638,0
DA:639,0
DA:640,0
DA:642,0
DA:643,0
DA:644,0
DA:646,0
DA:647,0
DA:648,1
DA:651,1
DA:654,1
DA:655,1
DA:657,1
DA:659,1
DA:660,2
BRF:0
BRH:0
LF:302
LH:219
end_of_record
SF:/home/liam/VSCodeProjects/erdos-graph/src/scrapers/zbmath.rs
FN:264,_RNCNCNvNtNtCs3DfrKCvK6AP_11erdos_graph8scrapers6zbmath24scrape_chunk_with_config00B9_
FN:179,_RNCNvNtNtCs3DfrKCvK6AP_11erdos_graph8scrapers6zbmath12scrape_range0B7_
FN:202,_RNCNvNtNtCs3DfrKCvK6AP_11erdos_graph8scrapers6zbmath24scrape_chunk_with_config0B7_
FN:188,_RNCNvNtNtCs3DfrKCvK6AP_11erdos_graph8scrapers6zbmath24scrape_range_with_config0B7_
FN:320,_RNCNvNtNtCs3DfrKCvK6AP_11erdos_graph8scrapers6zbmath29convert_to_publication_record0B7_
FN:329,_RNCNvNtNtCs3DfrKCvK6AP_11erdos_graph8scrapers6zbmath29convert_to_publication_records0_0B7_
FN:328,_RNCNvNtNtCs3DfrKCvK6AP_11erdos_graph8scrapers6zbmath29convert_to_publication_records_0B7_
FN:27,_RNvMNtNtCs3DfrKCvK6AP_11erdos_graph8scrapers6zbmathNtB2_13ZbmathScraper11with_config
FN:176,_RNvNtNtCs3DfrKCvK6AP_11erdos_graph8scrapers6zbmath12scrape_range
FN:33,_RNvXs_NtNtCs3DfrKCvK6AP_11erdos_graph8scrapers6zbmathNtB4_13ZbmathScraperNtNtCsed4ga1QahSC_4core7default7Default7default
FN:20,_RNvMNtNtCs3DfrKCvK6AP_11erdos_graph8scrapers6zbmathNtB2_13ZbmathScraper3new
FN:197,_RNvNtNtCs3DfrKCvK6AP_11erdos_graph8scrapers6zbmath24scrape_chunk_with_config
FN:184,_RNvNtNtCs3DfrKCvK6AP_11erdos_graph8scrapers6zbmath24scrape_range_with_config
FN:309,_RNvNtNtCs3DfrKCvK6AP_11erdos_graph8scrapers6zbmath29convert_to_publication_record
FN:56,_RNvXs0_NtNtCs3DfrKCvK6AP_11erdos_graph8scrapers6zbmathNtB5_12ZbmathConfigNtNtCsed4ga1QahSC_4core7default7Default7default
FN:44,_RNvXs3_NtNtCs3DfrKCvK6AP_11erdos_graph8scrapers6zbmathNtB5_13ZbmathScraperNtNtB7_7scraper7Scraper12scrape_range
FNDA:1,_RNCNCNvNtNtCs3DfrKCvK6AP_11erdos_graph8scrapers6zbmath24scrape_chunk_with_config00B9_
FNDA:0,_RNCNvNtNtCs3DfrKCvK6AP_11erdos_graph8scrapers6zbmath12scrape_range0B7_
FNDA:18,_RNCNvNtNtCs3DfrKCvK6AP_11erdos_graph8scrapers6zbmath24scrape_chunk_with_config0B7_
FNDA:5,_RNCNvNtNtCs3DfrKCvK6AP_11erdos_graph8scrapers6zbmath24scrape_range_with_config0B7_
FNDA:1,_RNCNvNtNtCs3DfrKCvK6AP_11erdos_graph8scrapers6zbmath29convert_to_publication_record0B7_
FNDA:18,_RNCNvNtNtCs3DfrKCvK6AP_11erdos_graph8scrapers6zbmath29convert_to_publication_records0_0B7_
FNDA:18,_RNCNvNtNtCs3DfrKCvK6AP_11erdos_graph8scrapers6zbmath29convert_to_publication_records_0B7_
FNDA:0,_RNvMNtNtCs3DfrKCvK6AP_11erdos_graph8scrapers6zbmathNtB2_13ZbmathScraper11with_config
FNDA:0,_RNvNtNtCs3DfrKCvK6AP_11erdos_graph8scrapers6zbmath12scrape_range
FNDA:0,_RNvXs_NtNtCs3DfrKCvK6AP_11erdos_graph8scrapers6zbmathNtB4_13ZbmathScraperNtNtCsed4ga1QahSC_4core7default7Default7default
FNDA:0,_RNvMNtNtCs3DfrKCvK6AP_11erdos_graph8scrapers6zbmathNtB2_13ZbmathScraper3new
FNDA:18,_RNvNtNtCs3DfrKCvK6AP_11erdos_graph8scrapers6zbmath24scrape_chunk_with_config
FNDA:5,_RNvNtNtCs3DfrKCvK6AP_11erdos_graph8scrapers6zbmath24scrape_range_with_config
FNDA:14,_RNvNtNtCs3DfrKCvK6AP_11erdos_graph8scrapers6zbmath29convert_to_publication_record
FNDA:2,_RNvXs0_NtNtCs3DfrKCvK6AP_11erdos_graph8scrapers6zbmathNtB5_12ZbmathConfigNtNtCsed4ga1QahSC_4core7default7Default7default
FNDA:0,_RNvXs3_NtNtCs3DfrKCvK6AP_11erdos_graph8scrapers6zbmathNtB5_13ZbmathScraperNtNtB7_7scraper7Scraper12scrape_range
FNF:16
FNH:10
DA:20,0
DA:21,0
DA:22,0
DA:23,0
DA:24,0
DA:27,0
DA:28,0
DA:29,0
DA:33,0
DA:34,0
DA:35,0
DA:44,0
DA:46,0
DA:56,2
DA:57,2
DA:58,2
DA:59,2
DA:60,2
DA:61,2
DA:176,0
DA:177,0
DA:178,0
DA:179,0
DA:180,0
DA:181,0
DA:184,5
DA:185,5
DA:186,5
DA:187,5
DA:188,5
DA:189,5
DA:190,5
DA:191,5
DA:197,18
DA:198,18
DA:199,18
DA:200,18
DA:201,18
DA:202,18
DA:203,18
DA:204,18
DA:207,19
DA:208,19
DA:209,19
DA:212,19
DA:213,1
DA:214,1
DA:215,18
DA:216,18
DA:217,18
DA:218,18
DA:219,18
DA:221,19
DA:223,19
DA:224,19
DA:225,19
DA:226,19
DA:227,19
DA:228,19
DA:230,19
DA:231,19
DA:233,19
DA:235,9
DA:236,7
DA:237,6
DA:238,6
DA:240,3
DA:241,3
DA:242,3
DA:243,3
DA:244,3
DA:245,3
DA:247,3
DA:248,2
DA:251,1
DA:252,1
DA:253,1
DA:256,1
DA:258,2
DA:260,10
DA:263,11
DA:264,11
DA:266,10
DA:267,2
DA:268,2
DA:270,1
DA:273,1
DA:276,8
DA:278,8
DA:279,7
DA:280,7
DA:281,7
DA:282,7
DA:284,14
DA:285,7
DA:286,7
DA:287,7
DA:291,7
DA:292,7
DA:294,6
DA:295,1
DA:298,1
DA:301,1
DA:305,11
DA:306,18
DA:309,14
DA:310,14
DA:311,14
DA:312,14
DA:313,13
DA:314,1
DA:317,13
DA:320,13
DA:321,13
DA:324,13
DA:326,12
DA:327,12
DA:328,18
DA:329,18
DA:330,12
DA:332,1
DA:336,13
DA:338,12
DA:339,11
DA:341,1
DA:344,1
DA:348,11
DA:350,11
DA:351,11
DA:352,11
DA:353,11
DA:354,11
DA:355,11
DA:356,11
DA:357,11
DA:358,14
BRF:0
BRH:0
LF:143
LH:123
end_of_record
SF:/home/liam/VSCodeProjects/erdos-graph/src/utilities/thread_safe_queue.rs
FN:17,_RNvXNtNtCs3DfrKCvK6AP_11erdos_graph9utilities17thread_safe_queueNtB2_11QueueConfigNtNtCsed4ga1QahSC_4core7default7Default7default
FN:188,_RNvXs2_NtNtCs3DfrKCvK6AP_11erdos_graph9utilities17thread_safe_queueINtB5_13QueueProducerNtNtNtB9_2db9ingestion17PublicationRecordENtNtNtCsed4ga1QahSC_4core3ops4drop4Drop4dropB9_
FN:120,_RNCNvMs_NtNtCs3DfrKCvK6AP_11erdos_graph9utilities17thread_safe_queueINtB6_15ThreadSafeQueueNtNtNtBa_2db9ingestion17PublicationRecordE10queue_size0Ba_
FN:58,_RNCNvMs_NtNtCs3DfrKCvK6AP_11erdos_graph9utilities17thread_safe_queueINtB6_15ThreadSafeQueueNtNtNtBa_2db9ingestion17PublicationRecordE17register_producer0Ba_
FN:135,_RNCNvMs_NtNtCs3DfrKCvK6AP_11erdos_graph9utilities17thread_safe_queueINtB6_15ThreadSafeQueueNtNtNtBa_2db9ingestion17PublicationRecordE18producers_finished0Ba_
FN:67,_RNCNvMs_NtNtCs3DfrKCvK6AP_11erdos_graph9utilities17thread_safe_queueINtB6_15ThreadSafeQueueNtNtNtBa_2db9ingestion17PublicationRecordE19unregister_producer0Ba_
FN:146,_RNCNvMs_NtNtCs3DfrKCvK6AP_11erdos_graph9utilities17thread_safe_queueINtB6_15ThreadSafeQueueNtNtNtBa_2db9ingestion17PublicationRecordE21active_producer_count0Ba_
FN:104,_RNCNvMs_NtNtCs3DfrKCvK6AP_11erdos_graph9utilities17thread_safe_queueINtB6_15ThreadSafeQueueNtNtNtBa_2db9ingestion17PublicationRecordE7dequeue0Ba_
FN:81,_RNCNvMs_NtNtCs3DfrKCvK6AP_11erdos_graph9utilities17thread_safe_queueINtB6_15ThreadSafeQueueNtNtNtBa_2db9ingestion17PublicationRecordE7enqueue0Ba_
FN:88,_RNCNvMs_NtNtCs3DfrKCvK6AP_11erdos_graph9utilities17thread_safe_queueINtB6_15ThreadSafeQueueNtNtNtBa_2db9ingestion17PublicationRecordE7enqueues_0Ba_
FN:181,_RNvMs1_NtNtCs3DfrKCvK6AP_11erdos_graph9utilities17thread_safe_queueINtB5_13QueueProducerNtNtNtB9_2db9ingestion17PublicationRecordE6submitB9_
FN:117,_RNvMs_NtNtCs3DfrKCvK6AP_11erdos_graph9utilities17thread_safe_queueINtB4_15ThreadSafeQueueNtNtNtB8_2db9ingestion17PublicationRecordE10queue_sizeB8_
FN:154,_RNvMs_NtNtCs3DfrKCvK6AP_11erdos_graph9utilities17thread_safe_queueINtB4_15ThreadSafeQueueNtNtNtB8_2db9ingestion17PublicationRecordE15create_producerB8_
FN:57,_RNvMs_NtNtCs3DfrKCvK6AP_11erdos_graph9utilities17thread_safe_queueINtB4_15ThreadSafeQueueNtNtNtB8_2db9ingestion17PublicationRecordE17register_producerB8_
FN:132,_RNvMs_NtNtCs3DfrKCvK6AP_11erdos_graph9utilities17thread_safe_queueINtB4_15ThreadSafeQueueNtNtNtB8_2db9ingestion17PublicationRecordE18producers_finishedB8_
FN:66,_RNvMs_NtNtCs3DfrKCvK6AP_11erdos_graph9utilities17thread_safe_queueINtB4_15ThreadSafeQueueNtNtNtB8_2db9ingestion17PublicationRecordE19unregister_producerB8_
FN:143,_RNvMs_NtNtCs3DfrKCvK6AP_11erdos_graph9utilities17thread_safe_queueINtB4_15ThreadSafeQueueNtNtNtB8_2db9ingestion17PublicationRecordE21active_producer_countB8_
FN:43,_RNvMs_NtNtCs3DfrKCvK6AP_11erdos_graph9utilities17thread_safe_queueINtB4_15ThreadSafeQueueNtNtNtB8_2db9ingestion17PublicationRecordE3newB8_
FN:103,_RNvMs_NtNtCs3DfrKCvK6AP_11erdos_graph9utilities17thread_safe_queueINtB4_15ThreadSafeQueueNtNtNtB8_2db9ingestion17PublicationRecordE7dequeueB8_
FN:80,_RNvMs_NtNtCs3DfrKCvK6AP_11erdos_graph9utilities17thread_safe_queueINtB4_15ThreadSafeQueueNtNtNtB8_2db9ingestion17PublicationRecordE7enqueueB8_
FN:164,_RNvXs0_NtNtCs3DfrKCvK6AP_11erdos_graph9utilities17thread_safe_queueINtB5_15ThreadSafeQueueNtNtNtB9_2db9ingestion17PublicationRecordENtNtCsed4ga1QahSC_4core5clone5Clone5cloneB9_
FNDA:28,_RNvXNtNtCs3DfrKCvK6AP_11erdos_graph9utilities17thread_safe_queueNtB2_11QueueConfigNtNtCsed4ga1QahSC_4core7default7Default7default
FNDA:26,_RNvXs2_NtNtCs3DfrKCvK6AP_11erdos_graph9utilities17thread_safe_queueINtB5_13QueueProducerNtNtNtB9_2db9ingestion17PublicationRecordENtNtNtCsed4ga1QahSC_4core3ops4drop4Drop4dropB9_
FNDA:0,_RNCNvMs_NtNtCs3DfrKCvK6AP_11erdos_graph9utilities17thread_safe_queueINtB6_15ThreadSafeQueueNtNtNtBa_2db9ingestion17PublicationRecordE10queue_size0Ba_
FNDA:0,_RNCNvMs_NtNtCs3DfrKCvK6AP_11erdos_graph9utilities17thread_safe_queueINtB6_15ThreadSafeQueueNtNtNtBa_2db9ingestion17PublicationRecordE17register_producer0Ba_
FNDA:0,_RNCNvMs_NtNtCs3DfrKCvK6AP_11erdos_graph9utilities17thread_safe_queueINtB6_15ThreadSafeQueueNtNtNtBa_2db9ingestion17PublicationRecordE18producers_finished0Ba_
FNDA:0,_RNCNvMs_NtNtCs3DfrKCvK6AP_11erdos_graph9utilities17thread_safe_queueINtB6_15ThreadSafeQueueNtNtNtBa_2db9ingestion17PublicationRecordE19unregister_producer0Ba_
FNDA:0,_RNCNvMs_NtNtCs3DfrKCvK6AP_11erdos_graph9utilities17thread_safe_queueINtB6_15ThreadSafeQueueNtNtNtBa_2db9ingestion17PublicationRecordE21active_producer_count0Ba_
FNDA:0,_RNCNvMs_NtNtCs3DfrKCvK6AP_11erdos_graph9utilities17thread_safe_queueINtB6_15ThreadSafeQueueNtNtNtBa_2db9ingestion17PublicationRecordE7dequeue0Ba_
FNDA:0,_RNCNvMs_NtNtCs3DfrKCvK6AP_11erdos_graph9utilities17thread_safe_queueINtB6_15ThreadSafeQueueNtNtNtBa_2db9ingestion17PublicationRecordE7enqueue0Ba_
FNDA:0,_RNCNvMs_NtNtCs3DfrKCvK6AP_11erdos_graph9utilities17thread_safe_queueINtB6_15ThreadSafeQueueNtNtNtBa_2db9ingestion17PublicationRecordE7enqueues_0Ba_
FNDA:217,_RNvMs1_NtNtCs3DfrKCvK6AP_11erdos_graph9utilities17thread_safe_queueINtB5_13QueueProducerNtNtNtB9_2db9ingestion17PublicationRecordE6submitB9_
FNDA:26,_RNvMs_NtNtCs3DfrKCvK6AP_11erdos_graph9utilities17thread_safe_queueINtB4_15ThreadSafeQueueNtNtNtB8_2db9ingestion17PublicationRecordE10queue_sizeB8_
FNDA:26,_RNvMs_NtNtCs3DfrKCvK6AP_11erdos_graph9utilities17thread_safe_queueINtB4_15ThreadSafeQueueNtNtNtB8_2db9ingestion17PublicationRecordE15create_producerB8_
FNDA:34,_RNvMs_NtNtCs3DfrKCvK6AP_11erdos_graph9utilities17thread_safe_queueINtB4_15ThreadSafeQueueNtNtNtB8_2db9ingestion17PublicationRecordE17register_producerB8_
FNDA:63,_RNvMs_NtNtCs3DfrKCvK6AP_11erdos_graph9utilities17thread_safe_queueINtB4_15ThreadSafeQueueNtNtNtB8_2db9ingestion17PublicationRecordE18producers_finishedB8_
FNDA:31,_RNvMs_NtNtCs3DfrKCvK6AP_11erdos_graph9utilities17thread_safe_queueINtB4_15ThreadSafeQueueNtNtNtB8_2db9ingestion17PublicationRecordE19unregister_producerB8_
FNDA:18,_RNvMs_NtNtCs3DfrKCvK6AP_11erdos_graph9utilities17thread_safe_queueINtB4_15ThreadSafeQueueNtNtNtB8_2db9ingestion17PublicationRecordE21active_producer_countB8_
FNDA:31,_RNvMs_NtNtCs3DfrKCvK6AP_11erdos_graph9utilities17thread_safe_queueINtB4_15ThreadSafeQueueNtNtNtB8_2db9ingestion17PublicationRecordE3newB8_
FNDA:364,_RNvMs_NtNtCs3DfrKCvK6AP_11erdos_graph9utilities17thread_safe_queueINtB4_15ThreadSafeQueueNtNtNtB8_2db9ingestion17PublicationRecordE7dequeueB8_
FNDA:349,_RNvMs_NtNtCs3DfrKCvK6AP_11erdos_graph9utilities17thread_safe_queueINtB4_15ThreadSafeQueueNtNtNtB8_2db9ingestion17PublicationRecordE7enqueueB8_
FNDA:51,_RNvXs0_NtNtCs3DfrKCvK6AP_11erdos_graph9utilities17thread_safe_queueINtB5_15ThreadSafeQueueNtNtNtB9_2db9ingestion17PublicationRecordENtNtCsed4ga1QahSC_4core5clone5Clone5cloneB9_
FNF:21
FNH:13
DA:17,28
DA:18,28
DA:19,28
DA:20,28
DA:21,28
DA:43,31
DA:44,31
DA:45,31
DA:46,31
DA:47,31
DA:48,31
DA:49,31
DA:50,31
DA:51,31
DA:52,31
DA:53,31
DA:54,31
DA:57,34
DA:58,34
DA:59,0
DA:60,0
DA:61,0
DA:62,34
DA:63,34
DA:66,31
DA:67,31
DA:68,0
DA:69,0
DA:70,0
DA:71,31
DA:72,31
DA:73,19
DA:74,19
DA:75,31
DA:80,349
DA:81,349
DA:82,0
DA:83,0
DA:84,0
DA:87,354
DA:88,5
DA:89,0
DA:90,0
DA:91,0
DA:94,349
DA:96,349
DA:97,349
DA:98,349
DA:103,364
DA:104,364
DA:105,0
DA:106,0
DA:107,0
DA:108,364
DA:109,364
DA:110,316
DA:111,316
DA:112,316
DA:113,364
DA:114,364
DA:117,26
DA:118,26
DA:119,26
DA:120,26
DA:121,0
DA:122,0
DA:123,0
DA:125,26
DA:126,26
DA:132,63
DA:133,63
DA:134,63
DA:135,63
DA:136,0
DA:137,0
DA:138,0
DA:140,63
DA:143,18
DA:144,18
DA:145,18
DA:146,18
DA:147,0
DA:148,0
DA:149,0
DA:151,18
DA:154,26
DA:155,26
DA:156,26
DA:157,26
DA:158,26
DA:159,26
DA:164,51
DA:165,51
DA:166,51
DA:167,51
DA:168,51
DA:169,51
DA:170,51
DA:171,51
DA:181,217
DA:182,217
DA:183,217
DA:188,26
DA:189,26
DA:190,26
BRF:0
BRH:0
LF:113
LH:81
end_of_record